target datalayout = "e-m:e-p270:32:32-p271:32:32-p272:64:64-i64:64-i128:128-f80:128-n8:16:32:64-S128"
target triple = "x86_64-pc-linux-gnu"

%struct.jv = type { i8, i8, i16, i32, %union.anon }
%union.anon = type { ptr }
%struct.jq_state = type { ptr, ptr, ptr, ptr, ptr, %struct.jv, %struct.stack, i32, i32, i32, %struct.jv, %struct.jv, i32, i32, i32, i32, i32, %struct.jv, %struct.jv, %struct.jv, ptr, ptr, ptr, ptr, ptr, ptr }
%struct.stack = type { ptr, i32, i32 }
%struct.stack_pos = type { i32, i32 }
%struct.frame = type { ptr, i32, i32, ptr, [0 x %union.frame_entry] }
%union.frame_entry = type { %struct.closure }
%struct.closure = type { ptr, i32 }
%struct.bytecode = type { ptr, i32, i32, i32, %struct.jv, ptr, ptr, i32, ptr, %struct.jv }

; Function Attrs: nounwind uwtable
define internal ptr @stack_block_next(ptr noundef %0, i32 noundef %1) #0 {
  %3 = alloca ptr, align 8
  %4 = alloca i32, align 4
  store ptr %0, ptr %3, align 8, !tbaa !22
  store i32 %1, ptr %4, align 4, !tbaa !21
  %5 = load ptr, ptr %3, align 8, !tbaa !22
  %6 = load i32, ptr %4, align 4, !tbaa !21
  %7 = call ptr @stack_block(ptr noundef %5, i32 noundef %6)
  %8 = getelementptr inbounds i32, ptr %7, i64 -1
  ret ptr %8
}

; Function Attrs: nounwind uwtable
define internal void @stack_reallocate(ptr noundef %0, i64 noundef %1) #0 {
  %3 = alloca ptr, align 8
  %4 = alloca i64, align 8
  %5 = alloca i32, align 4
  %6 = alloca ptr, align 8
  %7 = alloca i32, align 4
  %8 = alloca ptr, align 8
  store ptr %0, ptr %3, align 8, !tbaa !22
  store i64 %1, ptr %4, align 8, !tbaa !24
  call void @llvm.lifetime.start.p0(i64 4, ptr %5) #7
  %9 = load ptr, ptr %3, align 8, !tbaa !22
  %10 = getelementptr inbounds nuw %struct.stack, ptr %9, i32 0, i32 1
  %11 = load i32, ptr %10, align 8, !tbaa !27
  %12 = sub nsw i32 0, %11
  %13 = add nsw i32 %12, 8
  store i32 %13, ptr %5, align 4, !tbaa !21
  call void @llvm.lifetime.start.p0(i64 8, ptr %6) #7
  %14 = load ptr, ptr %3, align 8, !tbaa !22
  %15 = getelementptr inbounds nuw %struct.stack, ptr %14, i32 0, i32 0
  %16 = load ptr, ptr %15, align 8, !tbaa !28
  %17 = icmp ne ptr %16, null
  br i1 %17, label %18, label %26

18:                                               ; preds = %2
  %19 = load ptr, ptr %3, align 8, !tbaa !22
  %20 = getelementptr inbounds nuw %struct.stack, ptr %19, i32 0, i32 0
  %21 = load ptr, ptr %20, align 8, !tbaa !28
  %22 = load i32, ptr %5, align 4, !tbaa !21
  %23 = sext i32 %22 to i64
  %24 = sub i64 0, %23
  %25 = getelementptr inbounds i8, ptr %21, i64 %24
  br label %27

26:                                               ; preds = %2
  br label %27

27:                                               ; preds = %26, %18
  %28 = phi ptr [ %25, %18 ], [ null, %26 ]
  store ptr %28, ptr %6, align 8, !tbaa !100
  call void @llvm.lifetime.start.p0(i64 4, ptr %7) #7
  %29 = load i32, ptr %5, align 4, !tbaa !21
  %30 = sext i32 %29 to i64
  %31 = load i64, ptr %4, align 8, !tbaa !24
  %32 = add i64 %30, %31
  %33 = add i64 %32, 256
  %34 = mul i64 %33, 2
  %35 = call i64 @align_round_up(i64 noundef %34)
  %36 = trunc i64 %35 to i32
  store i32 %36, ptr %7, align 4, !tbaa !21
  call void @llvm.lifetime.start.p0(i64 8, ptr %8) #7
  %37 = load ptr, ptr %6, align 8, !tbaa !100
  %38 = load i32, ptr %7, align 4, !tbaa !21
  %39 = sext i32 %38 to i64
  %40 = call ptr @jv_mem_realloc(ptr noundef %37, i64 noundef %39)
  store ptr %40, ptr %8, align 8, !tbaa !100
  %41 = load ptr, ptr %8, align 8, !tbaa !100
  %42 = load i32, ptr %7, align 4, !tbaa !21
  %43 = load i32, ptr %5, align 4, !tbaa !21
  %44 = sub nsw i32 %42, %43
  %45 = sext i32 %44 to i64
  %46 = getelementptr inbounds i8, ptr %41, i64 %45
  %47 = load ptr, ptr %8, align 8, !tbaa !100
  %48 = load i32, ptr %5, align 4, !tbaa !21
  %49 = sext i32 %48 to i64
  call void @llvm.memmove.p0.p0.i64(ptr align 1 %46, ptr align 1 %47, i64 %49, i1 false)
  %50 = load ptr, ptr %8, align 8, !tbaa !100
  %51 = load i32, ptr %7, align 4, !tbaa !21
  %52 = sext i32 %51 to i64
  %53 = getelementptr inbounds i8, ptr %50, i64 %52
  %54 = load ptr, ptr %3, align 8, !tbaa !22
  %55 = getelementptr inbounds nuw %struct.stack, ptr %54, i32 0, i32 0
  store ptr %53, ptr %55, align 8, !tbaa !28
  %56 = load i32, ptr %7, align 4, !tbaa !21
  %57 = sub nsw i32 %56, 8
  %58 = sub nsw i32 0, %57
  %59 = load ptr, ptr %3, align 8, !tbaa !22
  %60 = getelementptr inbounds nuw %struct.stack, ptr %59, i32 0, i32 1
  store i32 %58, ptr %60, align 8, !tbaa !27
  call void @llvm.lifetime.end.p0(i64 8, ptr %8) #7
  call void @llvm.lifetime.end.p0(i64 4, ptr %7) #7
  call void @llvm.lifetime.end.p0(i64 8, ptr %6) #7
  call void @llvm.lifetime.end.p0(i64 4, ptr %5) #7
  ret void
}

; Function Attrs: nounwind uwtable
define internal i64 @align_round_up(i64 noundef %0) #0 {
  %2 = alloca i64, align 8
  store i64 %0, ptr %2, align 8, !tbaa !24
  %3 = load i64, ptr %2, align 8, !tbaa !24
  %4 = add i64 %3, 7
  %5 = udiv i64 %4, 8
  %6 = mul i64 %5, 8
  ret i64 %6
}

; Function Attrs: nounwind uwtable
define internal ptr @stack_block(ptr noundef %0, i32 noundef %1) #0 {
  %3 = alloca ptr, align 8
  %4 = alloca i32, align 4
  store ptr %0, ptr %3, align 8, !tbaa !22
  store i32 %1, ptr %4, align 4, !tbaa !21
  %5 = load ptr, ptr %3, align 8, !tbaa !22
  %6 = getelementptr inbounds nuw %struct.stack, ptr %5, i32 0, i32 0
  %7 = load ptr, ptr %6, align 8, !tbaa !28
  %8 = load i32, ptr %4, align 4, !tbaa !21
  %9 = sext i32 %8 to i64
  %10 = getelementptr inbounds i8, ptr %7, i64 %9
  ret ptr %10
}

; Function Attrs: nounwind uwtable
define internal i32 @stack_push_block(ptr noundef %0, i32 noundef %1, i64 noundef %2) #0 {
  %4 = alloca ptr, align 8
  %5 = alloca i32, align 4
  %6 = alloca i64, align 8
  %7 = alloca i32, align 4
  %8 = alloca i32, align 4
  store ptr %0, ptr %4, align 8, !tbaa !22
  store i32 %1, ptr %5, align 4, !tbaa !21
  store i64 %2, ptr %6, align 8, !tbaa !24
  call void @llvm.lifetime.start.p0(i64 4, ptr %7) #7
  %9 = load i64, ptr %6, align 8, !tbaa !24
  %10 = call i64 @align_round_up(i64 noundef %9)
  %11 = add i64 %10, 8
  %12 = trunc i64 %11 to i32
  store i32 %12, ptr %7, align 4, !tbaa !21
  call void @llvm.lifetime.start.p0(i64 4, ptr %8) #7
  %13 = load ptr, ptr %4, align 8, !tbaa !22
  %14 = getelementptr inbounds nuw %struct.stack, ptr %13, i32 0, i32 2
  %15 = load i32, ptr %14, align 4, !tbaa !26
  %16 = load i32, ptr %7, align 4, !tbaa !21
  %17 = sub nsw i32 %15, %16
  store i32 %17, ptr %8, align 4, !tbaa !21
  %18 = load i32, ptr %8, align 4, !tbaa !21
  %19 = load ptr, ptr %4, align 8, !tbaa !22
  %20 = getelementptr inbounds nuw %struct.stack, ptr %19, i32 0, i32 1
  %21 = load i32, ptr %20, align 8, !tbaa !27
  %22 = icmp slt i32 %18, %21
  br i1 %22, label %23, label %27

23:                                               ; preds = %3
  %24 = load ptr, ptr %4, align 8, !tbaa !22
  %25 = load i32, ptr %7, align 4, !tbaa !21
  %26 = sext i32 %25 to i64
  call void @stack_reallocate(ptr noundef %24, i64 noundef %26)
  br label %27

27:                                               ; preds = %23, %3
  %28 = load i32, ptr %8, align 4, !tbaa !21
  %29 = load ptr, ptr %4, align 8, !tbaa !22
  %30 = getelementptr inbounds nuw %struct.stack, ptr %29, i32 0, i32 2
  store i32 %28, ptr %30, align 4, !tbaa !26
  %31 = load i32, ptr %5, align 4, !tbaa !21
  %32 = load ptr, ptr %4, align 8, !tbaa !22
  %33 = load i32, ptr %8, align 4, !tbaa !21
  %34 = call ptr @stack_block_next(ptr noundef %32, i32 noundef %33)
  store i32 %31, ptr %34, align 4, !tbaa !21
  %35 = load i32, ptr %8, align 4, !tbaa !21
  call void @llvm.lifetime.end.p0(i64 4, ptr %8) #7
  call void @llvm.lifetime.end.p0(i64 4, ptr %7) #7
  ret i32 %35
}

; Function Attrs: nounwind uwtable
define dso_local i64 @stack_get_pos(ptr noundef %0) #0 {
  %2 = alloca %struct.stack_pos, align 4
  %3 = alloca ptr, align 8
  store ptr %0, ptr %3, align 8, !tbaa !4
  %4 = getelementptr inbounds nuw %struct.stack_pos, ptr %2, i32 0, i32 0
  %5 = load ptr, ptr %3, align 8, !tbaa !4
  %6 = getelementptr inbounds nuw %struct.jq_state, ptr %5, i32 0, i32 8
  %7 = load i32, ptr %6, align 4, !tbaa !9
  store i32 %7, ptr %4, align 4, !tbaa !29
  %8 = getelementptr inbounds nuw %struct.stack_pos, ptr %2, i32 0, i32 1
  %9 = load ptr, ptr %3, align 8, !tbaa !4
  %10 = getelementptr inbounds nuw %struct.jq_state, ptr %9, i32 0, i32 7
  %11 = load i32, ptr %10, align 8, !tbaa !31
  store i32 %11, ptr %8, align 4, !tbaa !32
  %12 = load i64, ptr %2, align 4
  ret i64 %12
}

; Function Attrs: nounwind uwtable
define dso_local void @stack_push(ptr noundef %0, i64 %1, ptr %2) #0 {
  %4 = alloca %struct.jv, align 8
  %5 = alloca ptr, align 8
  %6 = alloca ptr, align 8
  %7 = getelementptr inbounds nuw { i64, ptr }, ptr %4, i32 0, i32 0
  store i64 %1, ptr %7, align 8
  %8 = getelementptr inbounds nuw { i64, ptr }, ptr %4, i32 0, i32 1
  store ptr %2, ptr %8, align 8
  store ptr %0, ptr %5, align 8, !tbaa !4
  %9 = load ptr, ptr %5, align 8, !tbaa !4
  %10 = getelementptr inbounds nuw %struct.jq_state, ptr %9, i32 0, i32 6
  %11 = load ptr, ptr %5, align 8, !tbaa !4
  %12 = getelementptr inbounds nuw %struct.jq_state, ptr %11, i32 0, i32 8
  %13 = load i32, ptr %12, align 4, !tbaa !9
  %14 = call i32 @stack_push_block(ptr noundef %10, i32 noundef %13, i64 noundef 16)
  %15 = load ptr, ptr %5, align 8, !tbaa !4
  %16 = getelementptr inbounds nuw %struct.jq_state, ptr %15, i32 0, i32 8
  store i32 %14, ptr %16, align 4, !tbaa !9
  call void @llvm.lifetime.start.p0(i64 8, ptr %6) #7
  %17 = load ptr, ptr %5, align 8, !tbaa !4
  %18 = getelementptr inbounds nuw %struct.jq_state, ptr %17, i32 0, i32 6
  %19 = load ptr, ptr %5, align 8, !tbaa !4
  %20 = getelementptr inbounds nuw %struct.jq_state, ptr %19, i32 0, i32 8
  %21 = load i32, ptr %20, align 4, !tbaa !9
  %22 = call ptr @stack_block(ptr noundef %18, i32 noundef %21)
  store ptr %22, ptr %6, align 8, !tbaa !17
  %23 = load ptr, ptr %6, align 8, !tbaa !17
  call void @llvm.memcpy.p0.p0.i64(ptr align 8 %23, ptr align 8 %4, i64 16, i1 false), !tbaa.struct !18
  call void @llvm.lifetime.end.p0(i64 8, ptr %6) #7
  ret void
}

; Function Attrs: nounwind uwtable
define dso_local void @jq_start(ptr noundef %0, i64 %1, ptr %2, i32 noundef %3) #0 {
  %5 = alloca %struct.jv, align 8
  %6 = alloca ptr, align 8
  %7 = alloca i32, align 4
  %8 = alloca %struct.closure, align 8
  %9 = alloca ptr, align 8
  %10 = alloca %struct.stack_pos, align 4
  %11 = getelementptr inbounds nuw { i64, ptr }, ptr %5, i32 0, i32 0
  store i64 %1, ptr %11, align 8
  %12 = getelementptr inbounds nuw { i64, ptr }, ptr %5, i32 0, i32 1
  store ptr %2, ptr %12, align 8
  store ptr %0, ptr %6, align 8, !tbaa !4
  store i32 %3, ptr %7, align 4, !tbaa !21
  %13 = load ptr, ptr %6, align 8, !tbaa !4
  %14 = getelementptr inbounds nuw %struct.jq_state, ptr %13, i32 0, i32 0
  %15 = load ptr, ptr %14, align 8, !tbaa !57
  %16 = load ptr, ptr %6, align 8, !tbaa !4
  %17 = getelementptr inbounds nuw %struct.jq_state, ptr %16, i32 0, i32 1
  %18 = load ptr, ptr %17, align 8, !tbaa !58
  call void @jv_nomem_handler(ptr noundef %15, ptr noundef %18)
  %19 = load ptr, ptr %6, align 8, !tbaa !4
  call void @jq_reset(ptr noundef %19)
  call void @llvm.lifetime.start.p0(i64 16, ptr %8) #7
  %20 = getelementptr inbounds nuw %struct.closure, ptr %8, i32 0, i32 0
  %21 = load ptr, ptr %6, align 8, !tbaa !4
  %22 = getelementptr inbounds nuw %struct.jq_state, ptr %21, i32 0, i32 2
  %23 = load ptr, ptr %22, align 8, !tbaa !90
  store ptr %23, ptr %20, align 8, !tbaa !80
  %24 = getelementptr inbounds nuw %struct.closure, ptr %8, i32 0, i32 1
  store i32 -1, ptr %24, align 8, !tbaa !82
  %25 = getelementptr i8, ptr %8, i64 12
  call void @llvm.memset.p0.i64(ptr align 4 %25, i8 0, i64 4, i1 false)
  call void @llvm.lifetime.start.p0(i64 8, ptr %9) #7
  %26 = load ptr, ptr %6, align 8, !tbaa !4
  %27 = getelementptr inbounds nuw { ptr, i32 }, ptr %8, i32 0, i32 0
  %28 = load ptr, ptr %27, align 8
  %29 = getelementptr inbounds nuw { ptr, i32 }, ptr %8, i32 0, i32 1
  %30 = load i32, ptr %29, align 8
  %31 = call ptr @frame_push(ptr noundef %26, ptr %28, i32 %30, ptr noundef null, i32 noundef 0)
  store ptr %31, ptr %9, align 8, !tbaa !47
  %32 = load ptr, ptr %9, align 8, !tbaa !47
  %33 = getelementptr inbounds nuw %struct.frame, ptr %32, i32 0, i32 2
  store i32 0, ptr %33, align 4, !tbaa !21
  %34 = load ptr, ptr %9, align 8, !tbaa !47
  %35 = getelementptr inbounds nuw %struct.frame, ptr %34, i32 0, i32 3
  store ptr null, ptr %35, align 8, !tbaa !33
  %36 = load ptr, ptr %6, align 8, !tbaa !4
  %37 = getelementptr inbounds nuw { i64, ptr }, ptr %5, i32 0, i32 0
  %38 = load i64, ptr %37, align 8
  %39 = getelementptr inbounds nuw { i64, ptr }, ptr %5, i32 0, i32 1
  %40 = load ptr, ptr %39, align 8
  call void @stack_push(ptr noundef %36, i64 %38, ptr %40)
  %41 = load ptr, ptr %6, align 8, !tbaa !4
  %42 = load ptr, ptr %6, align 8, !tbaa !4
  %43 = getelementptr inbounds nuw %struct.jq_state, ptr %42, i32 0, i32 2
  %44 = load ptr, ptr %43, align 8, !tbaa !90
  %45 = getelementptr inbounds nuw %struct.bytecode, ptr %44, i32 0, i32 0
  %46 = load ptr, ptr %45, align 8, !tbaa !77
  %47 = load ptr, ptr %6, align 8, !tbaa !4
  %48 = call i64 @stack_get_pos(ptr noundef %47)
  store i64 %48, ptr %10, align 4
  %49 = load i64, ptr %10, align 4
  call void @stack_save(ptr noundef %41, ptr noundef %46, i64 %49)
  %50 = load i32, ptr %7, align 4, !tbaa !21
  %51 = and i32 %50, 3
  %52 = load ptr, ptr %6, align 8, !tbaa !4
  %53 = getelementptr inbounds nuw %struct.jq_state, ptr %52, i32 0, i32 13
  store i32 %51, ptr %53, align 4, !tbaa !61
  %54 = load ptr, ptr %6, align 8, !tbaa !4
  %55 = getelementptr inbounds nuw %struct.jq_state, ptr %54, i32 0, i32 14
  store i32 1, ptr %55, align 8, !tbaa !59
  call void @llvm.lifetime.end.p0(i64 8, ptr %9) #7
  call void @llvm.lifetime.end.p0(i64 16, ptr %8) #7
  ret void
}