; Function Attrs: nounwind uwtable
define dso_local void @jq_start(ptr noundef captures(none) %0, i64 %1, ptr %2, i32 noundef %3) local_unnamed_addr #0 {
  %5 = load ptr, ptr %0, align 8, !tbaa !43
  %6 = getelementptr inbounds nuw i8, ptr %0, i64 8
  %7 = load ptr, ptr %6, align 8, !tbaa !44
  tail call void @jv_nomem_handler(ptr noundef %5, ptr noundef %7) #13
  tail call fastcc void @jq_reset(ptr noundef nonnull %0)
  %8 = getelementptr inbounds nuw i8, ptr %0, i64 16
  %9 = load ptr, ptr %8, align 8, !tbaa !68
  %10 = tail call fastcc ptr @frame_push(ptr noundef nonnull %0, ptr %9, i32 -1, ptr noundef null, i32 noundef 0)
  %11 = getelementptr inbounds nuw i8, ptr %10, i64 12
  store i32 0, ptr %11, align 4, !tbaa !18
  %12 = getelementptr inbounds nuw i8, ptr %10, i64 16
  store ptr null, ptr %12, align 8, !tbaa !62
  %13 = getelementptr inbounds nuw i8, ptr %0, i64 56
  %14 = getelementptr inbounds nuw i8, ptr %0, i64 76
  %15 = load i32, ptr %14, align 4, !tbaa !4
  %16 = getelementptr inbounds nuw i8, ptr %0, i64 68
  %17 = load i32, ptr %16, align 4, !tbaa !15
  %18 = add nsw i32 %17, -24
  %19 = getelementptr inbounds nuw i8, ptr %0, i64 64
  %20 = load i32, ptr %19, align 8, !tbaa !16
  %21 = icmp slt i32 %18, %20
  %.val.pre.i.i = load ptr, ptr %13, align 8, !tbaa !17
  br i1 %21, label %22, label %stack_push.exit

22:                                               ; preds = %4
  %23 = sub i32 8, %20
  %.not.i.i.i = icmp eq ptr %.val.pre.i.i, null
  %24 = sext i32 %23 to i64
  %25 = sub nsw i64 0, %24
  %26 = getelementptr inbounds i8, ptr %.val.pre.i.i, i64 %25
  %27 = select i1 %.not.i.i.i, ptr null, ptr %26
  %28 = shl nsw i64 %24, 1
  %29 = add nsw i64 %28, 567
  %30 = and i64 %29, -8
  %31 = trunc i64 %30 to i32
  %sext.i.i.i = shl i64 %30, 32
  %32 = ashr exact i64 %sext.i.i.i, 32
  %33 = tail call ptr @jv_mem_realloc(ptr noundef %27, i64 noundef %32) #13
  %34 = sub nsw i32 %31, %23
  %35 = sext i32 %34 to i64
  %36 = getelementptr inbounds i8, ptr %33, i64 %35
  tail call void @llvm.memmove.p0.p0.i64(ptr align 1 %36, ptr align 1 %33, i64 %24, i1 false)
  %37 = getelementptr inbounds i8, ptr %33, i64 %32
  store ptr %37, ptr %13, align 8, !tbaa !17
  %38 = sub nsw i32 8, %31
  store i32 %38, ptr %19, align 8, !tbaa !16
  br label %stack_push.exit

stack_push.exit:                                  ; preds = %4, %22
  %.val.i = phi ptr [ %37, %22 ], [ %.val.pre.i.i, %4 ]
  store i32 %18, ptr %16, align 4, !tbaa !15
  %39 = sext i32 %18 to i64
  %40 = getelementptr inbounds i8, ptr %.val.i, i64 %39
  %41 = getelementptr inbounds i8, ptr %40, i64 -4
  store i32 %15, ptr %41, align 4, !tbaa !18
  store i32 %18, ptr %14, align 4, !tbaa !4
  store i64 %1, ptr %40, align 8
  %.sroa.2.0..0..sroa_idx.i = getelementptr inbounds nuw i8, ptr %40, i64 8
  store ptr %2, ptr %.sroa.2.0..0..sroa_idx.i, align 8, !tbaa !19
  %42 = load ptr, ptr %8, align 8, !tbaa !68
  %43 = load ptr, ptr %42, align 8, !tbaa !63
  %44 = load i32, ptr %14, align 4, !tbaa !4
  %45 = getelementptr inbounds nuw i8, ptr %0, i64 72
  %46 = load i32, ptr %45, align 8, !tbaa !20
  %.sroa.2.0.insert.ext.i = zext i32 %46 to i64
  %.sroa.2.0.insert.shift.i = shl nuw i64 %.sroa.2.0.insert.ext.i, 32
  %.sroa.0.0.insert.ext.i = zext i32 %44 to i64
  %.sroa.0.0.insert.insert.i = or disjoint i64 %.sroa.2.0.insert.shift.i, %.sroa.0.0.insert.ext.i
  tail call void @stack_save(ptr noundef nonnull %0, ptr noundef %43, i64 %.sroa.0.0.insert.insert.i)
  %47 = and i32 %3, 3
  %48 = getelementptr inbounds nuw i8, ptr %0, i64 124
  store i32 %47, ptr %48, align 4, !tbaa !47
  %49 = getelementptr inbounds nuw i8, ptr %0, i64 128
  store i32 1, ptr %49, align 8, !tbaa !45
  ret void
}